target datalayout = "e-m:e-p270:32:32-p271:32:32-p272:64:64-i64:64-i128:128-f80:128-n8:16:32:64-S128"
target triple = "x86_64-unknown-linux-gnu"

%"class.llvh::FoldingSetBase" = type { ptr, ptr, i32, i32 }
%"class.llvh::FoldingSetBase::Node" = type { ptr }

; Function Attrs: mustprogress nounwind uwtable
define internal noundef ptr @_ZL12GetBucketPtrPv(ptr noundef %NextInBucketPtr) #0 {
entry:
  %NextInBucketPtr.addr = alloca ptr, align 8
  %Ptr = alloca i64, align 8
  store ptr %NextInBucketPtr, ptr %NextInBucketPtr.addr, align 8
  %0 = load ptr, ptr %NextInBucketPtr.addr, align 8
  %1 = ptrtoint ptr %0 to i64
  store i64 %1, ptr %Ptr, align 8
  %2 = load i64, ptr %Ptr, align 8
  %and = and i64 %2, -2
  %3 = inttoptr i64 %and to ptr
  ret ptr %3
}

; Function Attrs: mustprogress nounwind uwtable
define internal noundef ptr @_ZL10GetNextPtrPv(ptr noundef %NextInBucketPtr) #0 {
entry:
  %retval = alloca ptr, align 8
  %NextInBucketPtr.addr = alloca ptr, align 8
  store ptr %NextInBucketPtr, ptr %NextInBucketPtr.addr, align 8
  %0 = load ptr, ptr %NextInBucketPtr.addr, align 8
  %1 = ptrtoint ptr %0 to i64
  %and = and i64 %1, 1
  %tobool = icmp ne i64 %and, 0
  br i1 %tobool, label %if.then, label %if.end

if.then:                                          ; preds = %entry
  store ptr null, ptr %retval, align 8
  br label %return

if.end:                                           ; preds = %entry
  %2 = load ptr, ptr %NextInBucketPtr.addr, align 8
  store ptr %2, ptr %retval, align 8
  br label %return

return:                                           ; preds = %if.end, %if.then
  %3 = load ptr, ptr %retval, align 8
  ret ptr %3
}

; Function Attrs: mustprogress nounwind uwtable
define linkonce_odr hidden void @_ZN4llvh14FoldingSetBase4Node15SetNextInBucketEPv(ptr noundef nonnull align 8 dereferenceable(8) %this, ptr noundef %N) #0 comdat align 2 {
entry:
  %this.addr = alloca ptr, align 8
  %N.addr = alloca ptr, align 8
  store ptr %this, ptr %this.addr, align 8
  store ptr %N, ptr %N.addr, align 8
  %this1 = load ptr, ptr %this.addr, align 8
  %0 = load ptr, ptr %N.addr, align 8
  %NextInFoldingSetBucket = getelementptr inbounds %"class.llvh::FoldingSetBase::Node", ptr %this1, i32 0, i32 0
  store ptr %0, ptr %NextInFoldingSetBucket, align 8
  ret void
}

; Function Attrs: mustprogress nounwind uwtable
define linkonce_odr hidden noundef ptr @_ZNK4llvh14FoldingSetBase4Node15getNextInBucketEv(ptr noundef nonnull align 8 dereferenceable(8) %this) #0 comdat align 2 {
entry:
  %this.addr = alloca ptr, align 8
  store ptr %this, ptr %this.addr, align 8
  %this1 = load ptr, ptr %this.addr, align 8
  %NextInFoldingSetBucket = getelementptr inbounds %"class.llvh::FoldingSetBase::Node", ptr %this1, i32 0, i32 0
  %0 = load ptr, ptr %NextInFoldingSetBucket, align 8
  ret ptr %0
}

; Function Attrs: mustprogress nounwind uwtable
define hidden noundef zeroext i1 @_ZN4llvh14FoldingSetBase10RemoveNodeEPNS0_4NodeE(ptr noundef nonnull align 8 dereferenceable(24) %this, ptr noundef %N) #0 align 2 {
entry:
  %retval = alloca i1, align 1
  %this.addr = alloca ptr, align 8
  %N.addr = alloca ptr, align 8
  %Ptr = alloca ptr, align 8
  %NodeNextPtr = alloca ptr, align 8
  %NodeInBucket = alloca ptr, align 8
  %Bucket = alloca ptr, align 8
  store ptr %this, ptr %this.addr, align 8
  store ptr %N, ptr %N.addr, align 8
  %this1 = load ptr, ptr %this.addr, align 8
  %0 = load ptr, ptr %N.addr, align 8
  %call = call noundef ptr @_ZNK4llvh14FoldingSetBase4Node15getNextInBucketEv(ptr noundef nonnull align 8 dereferenceable(8) %0)
  store ptr %call, ptr %Ptr, align 8
  %1 = load ptr, ptr %Ptr, align 8
  %tobool = icmp ne ptr %1, null
  br i1 %tobool, label %if.end, label %if.then

if.then:                                          ; preds = %entry
  store i1 false, ptr %retval, align 1
  br label %return

if.end:                                           ; preds = %entry
  %NumNodes = getelementptr inbounds %"class.llvh::FoldingSetBase", ptr %this1, i32 0, i32 3
  %2 = load i32, ptr %NumNodes, align 4
  %dec = add i32 %2, -1
  store i32 %dec, ptr %NumNodes, align 4
  %3 = load ptr, ptr %N.addr, align 8
  call void @_ZN4llvh14FoldingSetBase4Node15SetNextInBucketEPv(ptr noundef nonnull align 8 dereferenceable(8) %3, ptr noundef null)
  %4 = load ptr, ptr %Ptr, align 8
  store ptr %4, ptr %NodeNextPtr, align 8
  br label %while.body

while.body:                                       ; preds = %if.end12, %if.end
  %5 = load ptr, ptr %Ptr, align 8
  %call2 = call noundef ptr @_ZL10GetNextPtrPv(ptr noundef %5)
  store ptr %call2, ptr %NodeInBucket, align 8
  %6 = load ptr, ptr %NodeInBucket, align 8
  %tobool3 = icmp ne ptr %6, null
  br i1 %tobool3, label %if.then4, label %if.else

if.then4:                                         ; preds = %while.body
  %7 = load ptr, ptr %NodeInBucket, align 8
  %call5 = call noundef ptr @_ZNK4llvh14FoldingSetBase4Node15getNextInBucketEv(ptr noundef nonnull align 8 dereferenceable(8) %7)
  store ptr %call5, ptr %Ptr, align 8
  %8 = load ptr, ptr %Ptr, align 8
  %9 = load ptr, ptr %N.addr, align 8
  %cmp = icmp eq ptr %8, %9
  br i1 %cmp, label %if.then6, label %if.end7

if.then6:                                         ; preds = %if.then4
  %10 = load ptr, ptr %NodeInBucket, align 8
  %11 = load ptr, ptr %NodeNextPtr, align 8
  call void @_ZN4llvh14FoldingSetBase4Node15SetNextInBucketEPv(ptr noundef nonnull align 8 dereferenceable(8) %10, ptr noundef %11)
  store i1 true, ptr %retval, align 1
  br label %return

if.end7:                                          ; preds = %if.then4
  br label %if.end12

if.else:                                          ; preds = %while.body
  %12 = load ptr, ptr %Ptr, align 8
  %call8 = call noundef ptr @_ZL12GetBucketPtrPv(ptr noundef %12)
  store ptr %call8, ptr %Bucket, align 8
  %13 = load ptr, ptr %Bucket, align 8
  %14 = load ptr, ptr %13, align 8
  store ptr %14, ptr %Ptr, align 8
  %15 = load ptr, ptr %Ptr, align 8
  %16 = load ptr, ptr %N.addr, align 8
  %cmp9 = icmp eq ptr %15, %16
  br i1 %cmp9, label %if.then10, label %if.end11

if.then10:                                        ; preds = %if.else
  %17 = load ptr, ptr %NodeNextPtr, align 8
  %18 = load ptr, ptr %Bucket, align 8
  store ptr %17, ptr %18, align 8
  store i1 true, ptr %retval, align 1
  br label %return

if.end11:                                         ; preds = %if.else
  br label %if.end12

if.end12:                                         ; preds = %if.end11, %if.end7
  br label %while.body, !llvm.loop !9

return:                                           ; preds = %if.then10, %if.then6, %if.then
  %19 = load i1, ptr %retval, align 1
  ret i1 %19
}