; Function Attrs: mustprogress nofree norecurse nosync nounwind memory(readwrite, inaccessiblemem: none) uwtable
define hidden noundef zeroext i1 @_ZN4llvh14FoldingSetBase10RemoveNodeEPNS0_4NodeE(ptr nocapture noundef nonnull align 8 dereferenceable(24) %this, ptr noundef %N) local_unnamed_addr #10 align 2 {
entry:
  %0 = load ptr, ptr %N, align 8
  %tobool.not = icmp ne ptr %0, null
  br i1 %tobool.not, label %if.end, label %return

if.end:                                           ; preds = %entry
  %NumNodes = getelementptr inbounds i8, ptr %this, i64 20
  %1 = load i32, ptr %NumNodes, align 4
  %dec = add i32 %1, -1
  store i32 %dec, ptr %NumNodes, align 4
  store ptr null, ptr %N, align 8
  br label %while.body

while.body:                                       ; preds = %while.body.backedge, %if.end
  %Ptr.0 = phi ptr [ %0, %if.end ], [ %Ptr.0.be, %while.body.backedge ]
  %2 = ptrtoint ptr %Ptr.0 to i64
  %and.i = and i64 %2, 1
  %tobool.not.i = icmp ne i64 %and.i, 0
  %tobool3.not14 = icmp eq ptr %Ptr.0, null
  %tobool3.not = or i1 %tobool3.not14, %tobool.not.i
  br i1 %tobool3.not, label %if.else, label %if.then4

if.then4:                                         ; preds = %while.body
  %3 = load ptr, ptr %Ptr.0, align 8
  %cmp = icmp eq ptr %3, %N
  br i1 %cmp, label %return.sink.split, label %while.body.backedge

if.else:                                          ; preds = %while.body
  %and.i13 = and i64 %2, -2
  %4 = inttoptr i64 %and.i13 to ptr
  %5 = load ptr, ptr %4, align 8
  %cmp9 = icmp eq ptr %5, %N
  br i1 %cmp9, label %return.sink.split, label %while.body.backedge

while.body.backedge:                              ; preds = %if.else, %if.then4
  %Ptr.0.be = phi ptr [ %3, %if.then4 ], [ %5, %if.else ]
  br label %while.body, !llvm.loop !10

return.sink.split:                                ; preds = %if.else, %if.then4
  %.lcssa.sink = phi ptr [ %Ptr.0, %if.then4 ], [ %4, %if.else ]
  store ptr %0, ptr %.lcssa.sink, align 8
  br label %return

return:                                           ; preds = %return.sink.split, %entry
  ret i1 %tobool.not
}